(dp0
S'2.500'
p1
F113.65814844697712
sS'1.300'
p2
F103.6544071840602
sS'1.800'
p3
F108.63270620904962
sS'2.100'
p4
F110.99089721882814
sS'1.700'
p5
F107.75829905235321
sS'1.200'
p6
F102.4299170044153
sS'2.600'
p7
F114.25814536725548
sS'1.600'
p8
F106.83086598297623
sS'2.200'
p9
F111.70255858008775
sS'2.700'
p10
F114.83549541368393
sS'1.100'
p11
F101.0988203968925
sS'2.800'
p12
F115.3918461973891
sS'2.300'
p13
F112.3825798876864
sS'1.500'
p14
F105.84355823641573
sS'3.000'
p15
F116.44729641961098
sS'2.400'
p16
F113.03365518761055
sS'1.900'
p17
F109.45982442394265
sS'2.900'
p18
F115.92867182146634
sS'2.000'
p19
F110.2445072149767
sS'1.400'
p20
F104.78810801419382
s.